; ModuleID = '14/1522.c'
source_filename = "14/1522.c"
target datalayout = "e-m:e-p270:32:32-p271:32:32-p272:64:64-i64:64-f80:128-n8:16:32:64-S128"
target triple = "x86_64-pc-linux-gnu"

%struct.student = type { i32, i32, i32, i32 }

@.str = private unnamed_addr constant [3 x i8] c"%d\00", align 1
@.str.1 = private unnamed_addr constant [7 x i8] c"%d%d%d\00", align 1
@.str.2 = private unnamed_addr constant [7 x i8] c"%d %d\0A\00", align 1

; Function Attrs: noinline nounwind uwtable
define dso_local void @main() #0 {
  %1 = alloca i32, align 4
  %2 = alloca i32, align 4
  %3 = alloca %struct.student*, align 8
  %4 = alloca %struct.student*, align 8
  %5 = alloca %struct.student, align 4
  %6 = call i32 (i8*, ...) @__isoc99_scanf(i8* getelementptr inbounds ([3 x i8], [3 x i8]* @.str, i64 0, i64 0), i32* %1)
  %7 = load i32, i32* %1, align 4
  %8 = sext i32 %7 to i64
  %9 = call noalias i8* @calloc(i64 %8, i64 16) #4
  %10 = bitcast i8* %9 to %struct.student*
  store %struct.student* %10, %struct.student** %4, align 8
  %11 = load %struct.student*, %struct.student** %4, align 8
  store %struct.student* %11, %struct.student** %3, align 8
  br label %12

12:                                               ; preds = %39, %0
  %13 = load %struct.student*, %struct.student** %3, align 8
  %14 = load %struct.student*, %struct.student** %4, align 8
  %15 = ptrtoint %struct.student* %13 to i64
  %16 = ptrtoint %struct.student* %14 to i64
  %17 = sub i64 %15, %16
  %18 = sdiv exact i64 %17, 16
  %19 = load i32, i32* %1, align 4
  %20 = sext i32 %19 to i64
  %21 = icmp slt i64 %18, %20
  br i1 %21, label %22, label %42

22:                                               ; preds = %12
  %23 = load %struct.student*, %struct.student** %3, align 8
  %24 = getelementptr inbounds %struct.student, %struct.student* %23, i32 0, i32 0
  %25 = load %struct.student*, %struct.student** %3, align 8
  %26 = getelementptr inbounds %struct.student, %struct.student* %25, i32 0, i32 1
  %27 = load %struct.student*, %struct.student** %3, align 8
  %28 = getelementptr inbounds %struct.student, %struct.student* %27, i32 0, i32 2
  %29 = call i32 (i8*, ...) @__isoc99_scanf(i8* getelementptr inbounds ([7 x i8], [7 x i8]* @.str.1, i64 0, i64 0), i32* %24, i32* %26, i32* %28)
  %30 = load %struct.student*, %struct.student** %3, align 8
  %31 = getelementptr inbounds %struct.student, %struct.student* %30, i32 0, i32 1
  %32 = load i32, i32* %31, align 4
  %33 = load %struct.student*, %struct.student** %3, align 8
  %34 = getelementptr inbounds %struct.student, %struct.student* %33, i32 0, i32 2
  %35 = load i32, i32* %34, align 4
  %36 = add nsw i32 %32, %35
  %37 = load %struct.student*, %struct.student** %3, align 8
  %38 = getelementptr inbounds %struct.student, %struct.student* %37, i32 0, i32 3
  store i32 %36, i32* %38, align 4
  br label %39

39:                                               ; preds = %22
  %40 = load %struct.student*, %struct.student** %3, align 8
  %41 = getelementptr inbounds %struct.student, %struct.student* %40, i32 1
  store %struct.student* %41, %struct.student** %3, align 8
  br label %12

42:                                               ; preds = %12
  store i32 0, i32* %2, align 4
  br label %43

43:                                               ; preds = %93, %42
  %44 = load i32, i32* %2, align 4
  %45 = icmp slt i32 %44, 3
  br i1 %45, label %46, label %96

46:                                               ; preds = %43
  %47 = load %struct.student*, %struct.student** %4, align 8
  %48 = load i32, i32* %1, align 4
  %49 = sext i32 %48 to i64
  %50 = getelementptr inbounds %struct.student, %struct.student* %47, i64 %49
  %51 = getelementptr inbounds %struct.student, %struct.student* %50, i64 -1
  store %struct.student* %51, %struct.student** %3, align 8
  br label %52

52:                                               ; preds = %82, %46
  %53 = load %struct.student*, %struct.student** %3, align 8
  %54 = load %struct.student*, %struct.student** %4, align 8
  %55 = load i32, i32* %2, align 4
  %56 = sext i32 %55 to i64
  %57 = getelementptr inbounds %struct.student, %struct.student* %54, i64 %56
  %58 = icmp ugt %struct.student* %53, %57
  br i1 %58, label %59, label %85

59:                                               ; preds = %52
  %60 = load %struct.student*, %struct.student** %3, align 8
  %61 = getelementptr inbounds %struct.student, %struct.student* %60, i32 0, i32 3
  %62 = load i32, i32* %61, align 4
  %63 = load %struct.student*, %struct.student** %3, align 8
  %64 = getelementptr inbounds %struct.student, %struct.student* %63, i64 -1
  %65 = getelementptr inbounds %struct.student, %struct.student* %64, i32 0, i32 3
  %66 = load i32, i32* %65, align 4
  %67 = icmp sgt i32 %62, %66
  br i1 %67, label %68, label %81

68:                                               ; preds = %59
  %69 = load %struct.student*, %struct.student** %3, align 8
  %70 = bitcast %struct.student* %5 to i8*
  %71 = bitcast %struct.student* %69 to i8*
  call void @llvm.memcpy.p0i8.p0i8.i64(i8* align 4 %70, i8* align 4 %71, i64 16, i1 false)
  %72 = load %struct.student*, %struct.student** %3, align 8
  %73 = load %struct.student*, %struct.student** %3, align 8
  %74 = getelementptr inbounds %struct.student, %struct.student* %73, i64 -1
  %75 = bitcast %struct.student* %72 to i8*
  %76 = bitcast %struct.student* %74 to i8*
  call void @llvm.memcpy.p0i8.p0i8.i64(i8* align 4 %75, i8* align 4 %76, i64 16, i1 false)
  %77 = load %struct.student*, %struct.student** %3, align 8
  %78 = getelementptr inbounds %struct.student, %struct.student* %77, i64 -1
  %79 = bitcast %struct.student* %78 to i8*
  %80 = bitcast %struct.student* %5 to i8*
  call void @llvm.memcpy.p0i8.p0i8.i64(i8* align 4 %79, i8* align 4 %80, i64 16, i1 false)
  br label %81

81:                                               ; preds = %68, %59
  br label %82

82:                                               ; preds = %81
  %83 = load %struct.student*, %struct.student** %3, align 8
  %84 = getelementptr inbounds %struct.student, %struct.student* %83, i32 -1
  store %struct.student* %84, %struct.student** %3, align 8
  br label %52

85:                                               ; preds = %52
  %86 = load %struct.student*, %struct.student** %3, align 8
  %87 = getelementptr inbounds %struct.student, %struct.student* %86, i32 0, i32 0
  %88 = load i32, i32* %87, align 4
  %89 = load %struct.student*, %struct.student** %3, align 8
  %90 = getelementptr inbounds %struct.student, %struct.student* %89, i32 0, i32 3
  %91 = load i32, i32* %90, align 4
  %92 = call i32 (i8*, ...) @printf(i8* getelementptr inbounds ([7 x i8], [7 x i8]* @.str.2, i64 0, i64 0), i32 %88, i32 %91)
  br label %93

93:                                               ; preds = %85
  %94 = load i32, i32* %2, align 4
  %95 = add nsw i32 %94, 1
  store i32 %95, i32* %2, align 4
  br label %43

96:                                               ; preds = %43
  %97 = load %struct.student*, %struct.student** %4, align 8
  %98 = bitcast %struct.student* %97 to i8*
  call void @free(i8* %98) #4
  ret void
}

declare dso_local i32 @__isoc99_scanf(i8*, ...) #1

; Function Attrs: nounwind
declare dso_local noalias i8* @calloc(i64, i64) #2

; Function Attrs: argmemonly nounwind willreturn
declare void @llvm.memcpy.p0i8.p0i8.i64(i8* noalias nocapture writeonly, i8* noalias nocapture readonly, i64, i1 immarg) #3

declare dso_local i32 @printf(i8*, ...) #1

; Function Attrs: nounwind
declare dso_local void @free(i8*) #2


!llvm.module.flags = !{!0}
!llvm.ident = !{!1}

!0 = !{i32 1, !"wchar_size", i32 4}
!1 = !{!"clang version 10.0.0-4ubuntu1 "}
